target datalayout = "e-m:e-p270:32:32-p271:32:32-p272:64:64-i64:64-i128:128-f80:128-n8:16:32:64-S128"
target triple = "x86_64-pc-linux-gnu"

@.str.2 = private unnamed_addr constant [15 x i8] c"operatorcmds.c\00", align 1
@.str.29 = private unnamed_addr constant [28 x i8] c"operator does not exist: %s\00", align 1
@__func__.ValidateOperatorReference = private unnamed_addr constant [26 x i8] c"ValidateOperatorReference\00", align 1
@.str.30 = private unnamed_addr constant [29 x i8] c"operator is only a shell: %s\00", align 1

; Function Attrs: nounwind uwtable
define internal i32 @ValidateOperatorReference(ptr noundef %0, i32 noundef %1, i32 noundef %2) #0 {
  %4 = alloca ptr, align 8
  %5 = alloca i32, align 4
  %6 = alloca i32, align 4
  %7 = alloca i32, align 4
  %8 = alloca i8, align 1
  store ptr %0, ptr %4, align 8
  store i32 %1, ptr %5, align 4
  store i32 %2, ptr %6, align 4
  call void @llvm.lifetime.start.p0(i64 4, ptr %7) #8
  call void @llvm.lifetime.start.p0(i64 1, ptr %8) #8
  %9 = load ptr, ptr %4, align 8
  %10 = load i32, ptr %5, align 4
  %11 = load i32, ptr %6, align 4
  %12 = call i32 @OperatorLookup(ptr noundef %9, i32 noundef %10, i32 noundef %11, ptr noundef %8)
  store i32 %12, ptr %7, align 4
  %13 = load i32, ptr %7, align 4
  %14 = icmp ne i32 %13, 0
  br i1 %14, label %31, label %15

15:                                               ; preds = %3
  br label %16

16:                                               ; preds = %15
  br i1 true, label %17, label %19

17:                                               ; preds = %16
  %18 = call zeroext i1 @errstart_cold(i32 noundef 21, ptr noundef null) #10
  br i1 %18, label %21, label %28

19:                                               ; preds = %16
  %20 = call zeroext i1 @errstart(i32 noundef 21, ptr noundef null)
  br i1 %20, label %21, label %28

21:                                               ; preds = %19, %17
  %22 = call i32 @errcode(i32 noundef 52461700)
  %23 = load ptr, ptr %4, align 8
  %24 = load i32, ptr %5, align 4
  %25 = load i32, ptr %6, align 4
  %26 = call ptr @op_signature_string(ptr noundef %23, i32 noundef %24, i32 noundef %25)
  %27 = call i32 (ptr, ...) @errmsg(ptr noundef @.str.29, ptr noundef %26)
  call void @errfinish(ptr noundef @.str.2, i32 noundef 391, ptr noundef @__func__.ValidateOperatorReference)
  br label %28

28:                                               ; preds = %21, %19, %17
  unreachable

29:                                               ; No predecessors!
  br label %30

30:                                               ; preds = %29
  br label %31

31:                                               ; preds = %30, %3
  %32 = load i8, ptr %8, align 1, !range !4, !noundef !5
  %33 = trunc i8 %32 to i1
  br i1 %33, label %50, label %34

34:                                               ; preds = %31
  br label %35

35:                                               ; preds = %34
  br i1 true, label %36, label %38

36:                                               ; preds = %35
  %37 = call zeroext i1 @errstart_cold(i32 noundef 21, ptr noundef null) #10
  br i1 %37, label %40, label %47

38:                                               ; preds = %35
  %39 = call zeroext i1 @errstart(i32 noundef 21, ptr noundef null)
  br i1 %39, label %40, label %47

40:                                               ; preds = %38, %36
  %41 = call i32 @errcode(i32 noundef 52461700)
  %42 = load ptr, ptr %4, align 8
  %43 = load i32, ptr %5, align 4
  %44 = load i32, ptr %6, align 4
  %45 = call ptr @op_signature_string(ptr noundef %42, i32 noundef %43, i32 noundef %44)
  %46 = call i32 (ptr, ...) @errmsg(ptr noundef @.str.30, ptr noundef %45)
  call void @errfinish(ptr noundef @.str.2, i32 noundef 399, ptr noundef @__func__.ValidateOperatorReference)
  br label %47

47:                                               ; preds = %40, %38, %36
  unreachable

48:                                               ; No predecessors!
  br label %49

49:                                               ; preds = %48
  br label %50

50:                                               ; preds = %49, %31
  %51 = load i32, ptr %7, align 4
  %52 = call i32 @GetUserId()
  %53 = call zeroext i1 @object_ownercheck(i32 noundef 2617, i32 noundef %51, i32 noundef %52)
  br i1 %53, label %57, label %54

54:                                               ; preds = %50
  %55 = load ptr, ptr %4, align 8
  %56 = call ptr @NameListToString(ptr noundef %55)
  call void @aclcheck_error(i32 noundef 2, i32 noundef 25, ptr noundef %56)
  br label %57

57:                                               ; preds = %54, %50
  %58 = load i32, ptr %7, align 4
  call void @llvm.lifetime.end.p0(i64 1, ptr %8) #8
  call void @llvm.lifetime.end.p0(i64 4, ptr %7) #8
  ret i32 %58
}