; Function Attrs: nounwind uwtable
define internal fastcc range(i32 1, 0) i32 @ValidateOperatorReference(ptr noundef nonnull %0, i32 noundef %1, i32 noundef %2) unnamed_addr #0 {
  %4 = alloca i8, align 1
  call void @llvm.lifetime.start.p0(i64 1, ptr nonnull %4) #7
  %5 = call i32 @OperatorLookup(ptr noundef nonnull %0, i32 noundef %1, i32 noundef %2, ptr noundef nonnull %4) #7
  %.not = icmp eq i32 %5, 0
  br i1 %.not, label %6, label %11

6:                                                ; preds = %3
  %7 = call zeroext i1 @errstart_cold(i32 noundef 21, ptr noundef null) #9
  call void @llvm.assume(i1 %7)
  %8 = call i32 @errcode(i32 noundef 52461700) #7
  %9 = call ptr @op_signature_string(ptr noundef nonnull %0, i32 noundef %1, i32 noundef %2) #7
  %10 = call i32 (ptr, ...) @errmsg(ptr noundef nonnull @.str.29, ptr noundef %9) #7
  call void @errfinish(ptr noundef nonnull @.str.2, i32 noundef 391, ptr noundef nonnull @__func__.ValidateOperatorReference) #7
  unreachable

11:                                               ; preds = %3
  %12 = load i8, ptr %4, align 1, !range !4, !noundef !5
  %13 = trunc nuw i8 %12 to i1
  br i1 %13, label %19, label %14

14:                                               ; preds = %11
  %15 = call zeroext i1 @errstart_cold(i32 noundef 21, ptr noundef null) #9
  call void @llvm.assume(i1 %15)
  %16 = call i32 @errcode(i32 noundef 52461700) #7
  %17 = call ptr @op_signature_string(ptr noundef nonnull %0, i32 noundef %1, i32 noundef %2) #7
  %18 = call i32 (ptr, ...) @errmsg(ptr noundef nonnull @.str.30, ptr noundef %17) #7
  call void @errfinish(ptr noundef nonnull @.str.2, i32 noundef 399, ptr noundef nonnull @__func__.ValidateOperatorReference) #7
  unreachable

19:                                               ; preds = %11
  %20 = call i32 @GetUserId() #7
  %21 = call zeroext i1 @object_ownercheck(i32 noundef 2617, i32 noundef %5, i32 noundef %20) #7
  br i1 %21, label %24, label %22

22:                                               ; preds = %19
  %23 = call ptr @NameListToString(ptr noundef nonnull %0) #7
  call void @aclcheck_error(i32 noundef 2, i32 noundef 25, ptr noundef %23) #7
  br label %24

24:                                               ; preds = %22, %19
  call void @llvm.lifetime.end.p0(i64 1, ptr nonnull %4) #7
  ret i32 %5
}